S'2015_02_25'
p1
.(dp1
S'ist-alameda'
p2
(lp3
(igpxpy.gpx
GPXTrackPoint
p4
(dp5
S'comment'
p6
NsS'elevation'
p7
F208
sS'name'
p8
NsS'vertical_dilution'
p9
I0
sS'symbol'
p10
NsS'longitude'
p11
F-9.3021890000000003
sS'time'
p12
cdatetime
datetime
p13
(S'\x07\xde\n\t\x0c\x18\x06\x00\x00\x00'
tRp14
sS'latitude'
p15
F38.738970000000002
sS'speed'
p16
I0
sS'horizontal_dilution'
p17
I0
sS'position_dilution'
p18
I0
sba(igpxpy.gpx
GPXTrackPoint
p19
(dp20
g6
Nsg7
F242
sg8
Nsg9
I0
sg10
Nsg11
F-9.3020580000000006
sg12
g13
(S'\x07\xde\n\t\x15\x164\x00\x00\x00'
tRp21
sg15
F38.738720999999998
sg16
I0
sg17
I0
sg18
I0
sba(igpxpy.gpx
GPXTrackPoint
p22
(dp23
g6
Nsg7
F204
sg8
Nsg9
I0
sg10
Nsg11
F-9.3022069999999992
sg12
g13
(S'\x07\xde\n\n\x02))\x00\x00\x00'
tRp24
sg15
F38.738917999999998
sg16
I0
sg17
I0
sg18
I0
sba(igpxpy.gpx
GPXTrackPoint
p25
(dp26
g6
Nsg7
F213
sg8
Nsg9
I0
sg10
Nsg11
F-9.3022399999999994
sg12
g13
(S'\x07\xde\n\n\x12\x12\x15\x00\x00\x00'
tRp27
sg15
F38.738979
sg16
I0
sg17
I0
sg18
I0
sba(igpxpy.gpx
GPXTrackPoint
p28
(dp29
g6
Nsg7
F199
sg8
Nsg9
I0
sg10
Nsg11
F-9.3016380000000005
sg12
g13
(S'\x07\xde\n\x0c\x022\x13\x00\x00\x00'
tRp30
sg15
F38.738840000000003
sg16
I0
sg17
I0
sg18
I0
sba(igpxpy.gpx
GPXTrackPoint
p31
(dp32
g6
Nsg7
F222
sg8
Nsg9
I0
sg10
Nsg11
F-9.3018769999999993
sg12
g13
(S'\x07\xde\n\r\x10\x00#\x00\x00\x00'
tRp33
sg15
F38.736628000000003
sg16
I0
sg17
I0
sg18
I0
sba(igpxpy.gpx
GPXTrackPoint
p34
(dp35
g6
Nsg7
F129
sg8
Nsg9
I0
sg10
Nsg11
F-8.9993829999999999
sg12
g13
(S'\x07\xde\n\x0e\x13\x19\x01\x00\x00\x00'
tRp36
sg15
F39.036932
sg16
I0
sg17
I0
sg18
I0
sba(igpxpy.gpx
GPXTrackPoint
p37
(dp38
g6
Nsg7
F157
sg8
Nsg9
I0
sg10
Nsg11
F-9.1405320000000003
sg12
g13
(S'\x07\xde\n\x14\t+\n\x00\x00\x00'
tRp39
sg15
F38.736314
sg16
I0
sg17
I0
sg18
I0
sba(igpxpy.gpx
GPXTrackPoint
p40
(dp41
g6
Nsg7
F161
sg8
Nsg9
I0
sg10
Nsg11
F-9.1519519999999996
sg12
g13
(S'\x07\xde\n\x14\r*.\x00\x00\x00'
tRp42
sg15
F38.743062999999999
sg16
I0
sg17
I0
sg18
I0
sba(igpxpy.gpx
GPXTrackPoint
p43
(dp44
g6
Nsg7
F140
sg8
Nsg9
I0
sg10
Nsg11
F-9.1369550000000004
sg12
g13
(S'\x07\xde\n\x1b\x0b&0\x00\x00\x00'
tRp45
sg15
F38.73695
sg16
I0
sg17
I0
sg18
I0
sba(igpxpy.gpx
GPXTrackPoint
p46
(dp47
g6
Nsg7
F133
sg8
Nsg9
I0
sg10
Nsg11
F-9.1366010000000006
sg12
g13
(S'\x07\xde\n\x1b\x0f\x04,\x00\x00\x00'
tRp48
sg15
F38.737313
sg16
I0
sg17
I0
sg18
I0
sba(igpxpy.gpx
GPXTrackPoint
p49
(dp50
g6
Nsg7
F113
sg8
Nsg9
I0
sg10
Nsg11
F-8.9994499999999995
sg12
g13
(S'\x07\xde\x0b\x07\x13\x07#\x00\x00\x00'
tRp51
sg15
F39.037016000000001
sg16
I0
sg17
I0
sg18
I0
sba(igpxpy.gpx
GPXTrackPoint
p52
(dp53
g6
Nsg7
F128
sg8
Nsg9
I0
sg10
Nsg11
F-9.1377380000000006
sg12
g13
(S'\x07\xde\x0b\n\x0b(\x1a\x00\x00\x00'
tRp54
sg15
F38.737914000000004
sg16
I0
sg17
I0
sg18
I0
sba(igpxpy.gpx
GPXTrackPoint
p55
(dp56
g6
Nsg7
F146
sg8
Nsg9
I0
sg10
Nsg11
F-9.1389689999999995
sg12
g13
(S'\x07\xde\x0b\x0c\t\x12\x02\x00\x00\x00'
tRp57
sg15
F38.735374
sg16
I0
sg17
I0
sg18
I0
sba(igpxpy.gpx
GPXTrackPoint
p58
(dp59
g6
Nsg7
F143
sg8
Nsg9
I0
sg10
Nsg11
F-9.1740130000000004
sg12
g13
(S'\x07\xde\x0b\x0c\r\x17"\x00\x00\x00'
tRp60
sg15
F38.738911999999999
sg16
I0
sg17
I0
sg18
I0
sba(igpxpy.gpx
GPXTrackPoint
p61
(dp62
g6
Nsg7
F130
sg8
Nsg9
I0
sg10
Nsg11
F-9.1366460000000007
sg12
g13
(S"\x07\xde\x0b\x18\n'\x0e\x00\x00\x00"
tRp63
sg15
F38.737071
sg16
I0
sg17
I0
sg18
I0
sba(igpxpy.gpx
GPXTrackPoint
p64
(dp65
g6
Nsg7
F148
sg8
Nsg9
I0
sg10
Nsg11
F-9.1406209999999994
sg12
g13
(S'\x07\xde\x0c\x01\n.\t\x00\x00\x00'
tRp66
sg15
F38.736462000000003
sg16
I0
sg17
I0
sg18
I0
sba(igpxpy.gpx
GPXTrackPoint
p67
(dp68
g6
Nsg7
F150
sg8
Nsg9
I0
sg10
Nsg11
F-9.1427270000000007
sg12
g13
(S'\x07\xde\x0c\x01\x0c\x0e,\x00\x00\x00'
tRp69
sg15
F38.737814999999998
sg16
I0
sg17
I0
sg18
I0
sba(igpxpy.gpx
GPXTrackPoint
p70
(dp71
g6
Nsg7
F131
sg8
Nsg9
I0
sg10
Nsg11
F-9.1366739999999993
sg12
g13
(S'\x07\xde\x0c\x0f\n%8\x00\x00\x00'
tRp72
sg15
F38.736654000000001
sg16
I0
sg17
I0
sg18
I0
sba(igpxpy.gpx
GPXTrackPoint
p73
(dp74
g6
Nsg7
F144
sg8
Nsg9
I0
sg10
Nsg11
F-9.1366790000000009
sg12
g13
(S'\x07\xde\x0c\x0f\x10\n#\x00\x00\x00'
tRp75
sg15
F38.737063999999997
sg16
I0
sg17
I0
sg18
I0
sba(igpxpy.gpx
GPXTrackPoint
p76
(dp77
g6
Nsg7
F77
sg8
Nsg9
I0
sg10
Nsg11
F-8.9599170000000008
sg12
g13
(S'\x07\xde\x0c\x17\x11\x01.\x00\x00\x00'
tRp78
sg15
F39.075794000000002
sg16
I0
sg17
I0
sg18
I0
sba(igpxpy.gpx
GPXTrackPoint
p79
(dp80
g6
Nsg7
F77
sg8
Nsg9
I0
sg10
Nsg11
F-8.959816
sg12
g13
(S'\x07\xde\x0c\x17\x11\x04\x1f\x00\x00\x00'
tRp81
sg15
F39.075887999999999
sg16
I0
sg17
I0
sg18
I0
sba(igpxpy.gpx
GPXTrackPoint
p82
(dp83
g6
Nsg7
F102
sg8
Nsg9
I0
sg10
Nsg11
F-8.9854489999999991
sg12
g13
(S'\x07\xde\x0c\x1d\x10%\x1b\x00\x00\x00'
tRp84
sg15
F38.977224
sg16
I0
sg17
I0
sg18
I0
sba(igpxpy.gpx
GPXTrackPoint
p85
(dp86
g6
Nsg7
F78
sg8
Nsg9
I0
sg10
Nsg11
F-9.0987770000000001
sg12
g13
(S'\x07\xde\x0c\x1e\t\x1b%\x00\x00\x00'
tRp87
sg15
F38.767530999999998
sg16
I0
sg17
I0
sg18
I0
sba(igpxpy.gpx
GPXTrackPoint
p88
(dp89
g6
Nsg7
F78
sg8
Nsg9
I0
sg10
Nsg11
F-9.0988509999999998
sg12
g13
(S'\x07\xde\x0c\x1e\t \x1b\x00\x00\x00'
tRp90
sg15
F38.76737
sg16
I0
sg17
I0
sg18
I0
sba(igpxpy.gpx
GPXTrackPoint
p91
(dp92
g6
Nsg7
F134
sg8
Nsg9
I0
sg10
Nsg11
F-9.1369229999999995
sg12
g13
(S'\x07\xdf\x01\x05\t9#\x00\x00\x00'
tRp93
sg15
F38.736117999999998
sg16
I0
sg17
I0
sg18
I0
sba(igpxpy.gpx
GPXTrackPoint
p94
(dp95
g6
Nsg7
F152
sg8
Nsg9
I0
sg10
Nsg11
F-9.1401409999999998
sg12
g13
(S'\x07\xdf\x01\x05\n\x00\x16\x00\x00\x00'
tRp96
sg15
F38.735374
sg16
I0
sg17
I0
sg18
I0
sba(igpxpy.gpx
GPXTrackPoint
p97
(dp98
g6
Nsg7
F107
sg8
Nsg9
I0
sg10
Nsg11
F-8.9993119999999998
sg12
g13
(S'\x07\xdf\x01\r\r,\x00\x00\x00\x00'
tRp99
sg15
F39.036977
sg16
I0
sg17
I0
sg18
I0
sba(igpxpy.gpx
GPXTrackPoint
p100
(dp101
g6
Nsg7
F153
sg8
Nsg9
I0
sg10
Nsg11
F-9.1368740000000006
sg12
g13
(S'\x07\xdf\x01\x10\t\x10\x11\x00\x00\x00'
tRp102
sg15
F38.745520999999997
sg16
I0
sg17
I0
sg18
I0
sba(igpxpy.gpx
GPXTrackPoint
p103
(dp104
g6
Nsg7
F159
sg8
Nsg9
I0
sg10
Nsg11
F-9.1445589999999992
sg12
g13
(S'\x07\xdf\x01\x10\x0c49\x00\x00\x00'
tRp105
sg15
F38.73348
sg16
I0
sg17
I0
sg18
I0
sba(igpxpy.gpx
GPXTrackPoint
p106
(dp107
g6
Nsg7
F80
sg8
Nsg9
I0
sg10
Nsg11
F-8.9655459999999998
sg12
g13
(S'\x07\xdf\x01\x15\x0c+8\x00\x00\x00'
tRp108
sg15
F38.988781000000003
sg16
I0
sg17
I0
sg18
I0
sba(igpxpy.gpx
GPXTrackPoint
p109
(dp110
g6
Nsg7
F70
sg8
Nsg9
I0
sg10
Nsg11
F-8.9656760000000002
sg12
g13
(S'\x07\xdf\x01\x15\r\x02$\x00\x00\x00'
tRp111
sg15
F38.988655999999999
sg16
I0
sg17
I0
sg18
I0
sba(igpxpy.gpx
GPXTrackPoint
p112
(dp113
g6
Nsg7
F54
sg8
Nsg9
I0
sg10
Nsg11
F-8.9648470000000007
sg12
g13
(S'\x07\xdf\x01\x16\x08\t\x1f\x00\x00\x00'
tRp114
sg15
F38.988404000000003
sg16
I0
sg17
I0
sg18
I0
sba(igpxpy.gpx
GPXTrackPoint
p115
(dp116
g6
Nsg7
F56
sg8
Nsg9
I0
sg10
Nsg11
F-8.9648369999999993
sg12
g13
(S'\x07\xdf\x01\x16\x08\x11\x1e\x00\x00\x00'
tRp117
sg15
F38.988415000000003
sg16
I0
sg17
I0
sg18
I0
sba(igpxpy.gpx
GPXTrackPoint
p118
(dp119
g6
Nsg7
F82
sg8
Nsg9
I0
sg10
Nsg11
F-9.1478339999999996
sg12
g13
(S'\x07\xdf\x01\x19\x11#3\x00\x00\x00'
tRp120
sg15
F39.403550000000003
sg16
I0
sg17
I0
sg18
I0
sba(igpxpy.gpx
GPXTrackPoint
p121
(dp122
g6
Nsg7
F84
sg8
Nsg9
I0
sg10
Nsg11
F-9.1479890000000008
sg12
g13
(S"\x07\xdf\x01\x19\x11')\x00\x00\x00"
tRp123
sg15
F39.403413
sg16
I0
sg17
I0
sg18
I0
sba(igpxpy.gpx
GPXTrackPoint
p124
(dp125
g6
Nsg7
F69
sg8
Nsg9
I0
sg10
Nsg11
F-8.9656070000000003
sg12
g13
(S'\x07\xdf\x01\x1a\x081\t\x00\x00\x00'
tRp126
sg15
F38.988557
sg16
I0
sg17
I0
sg18
I0
sba(igpxpy.gpx
GPXTrackPoint
p127
(dp128
g6
Nsg7
F147
sg8
Nsg9
I0
sg10
Nsg11
F-9.1365420000000004
sg12
g13
(S'\x07\xdf\x01\x1a\x12 %\x00\x00\x00'
tRp129
sg15
F38.737901000000001
sg16
I0
sg17
I0
sg18
I0
sba(igpxpy.gpx
GPXTrackPoint
p130
(dp131
g6
Nsg7
F139
sg8
Nsg9
I0
sg10
Nsg11
F-9.1379809999999999
sg12
g13
(S'\x07\xdf\x01\x1b\n6\x13\x00\x00\x00'
tRp132
sg15
F38.738022000000001
sg16
I0
sg17
I0
sg18
I0
sba(igpxpy.gpx
GPXTrackPoint
p133
(dp134
g6
Nsg7
F135
sg8
Nsg9
I0
sg10
Nsg11
F-9.1377369999999996
sg12
g13
(S'\x07\xdf\x01\x1e\x0c\x19\x17\x00\x00\x00'
tRp135
sg15
F38.737881999999999
sg16
I0
sg17
I0
sg18
I0
sba(igpxpy.gpx
GPXTrackPoint
p136
(dp137
g6
Nsg7
F81
sg8
Nsg9
I0
sg10
Nsg11
F-9.1481469999999998
sg12
g13
(S'\x07\xdf\x01\x1e\x12.6\x00\x00\x00'
tRp138
sg15
F38.744812000000003
sg16
I0
sg17
I0
sg18
I0
sba(igpxpy.gpx
GPXTrackPoint
p139
(dp140
g6
Nsg7
F62
sg8
Nsg9
I0
sg10
Nsg11
F-8.9657060000000008
sg12
g13
(S'\x07\xdf\x02\x02\t\x18\x14\x00\x00\x00'
tRp141
sg15
F38.988574999999997
sg16
I0
sg17
I0
sg18
I0
sba(igpxpy.gpx
GPXTrackPoint
p142
(dp143
g6
Nsg7
F89
sg8
Nsg9
I0
sg10
Nsg11
F-9.1000180000000004
sg12
g13
(S'\x07\xdf\x02\x02\x12 \x1f\x00\x00\x00'
tRp144
sg15
F38.760240000000003
sg16
I0
sg17
I0
sg18
I0
sba(igpxpy.gpx
GPXTrackPoint
p145
(dp146
g6
Nsg7
F74
sg8
Nsg9
I0
sg10
Nsg11
F-8.9655950000000004
sg12
g13
(S'\x07\xdf\x02\t\t\x165\x00\x00\x00'
tRp147
sg15
F38.988664
sg16
I0
sg17
I0
sg18
I0
sba(igpxpy.gpx
GPXTrackPoint
p148
(dp149
g6
Nsg7
F137
sg8
Nsg9
I0
sg10
Nsg11
F-9.1367189999999994
sg12
g13
(S'\x07\xdf\x02\t\x11\x0c\x03\x00\x00\x00'
tRp150
sg15
F38.738126999999999
sg16
I0
sg17
I0
sg18
I0
sba(igpxpy.gpx
GPXTrackPoint
p151
(dp152
g6
Nsg7
F70
sg8
Nsg9
I0
sg10
Nsg11
F-8.9655919999999991
sg12
g13
(S'\x07\xdf\x02\n\n3"\x00\x00\x00'
tRp153
sg15
F38.988618000000002
sg16
I0
sg17
I0
sg18
I0
sba(igpxpy.gpx
GPXTrackPoint
p154
(dp155
g6
Nsg7
F64
sg8
Nsg9
I0
sg10
Nsg11
F-8.9656459999999996
sg12
g13
(S'\x07\xdf\x02\n\x0b\x1b\x16\x00\x00\x00'
tRp156
sg15
F38.988480000000003
sg16
I0
sg17
I0
sg18
I0
sba(igpxpy.gpx
GPXTrackPoint
p157
(dp158
g6
Nsg7
F165
sg8
Nsg9
I0
sg10
Nsg11
F-9.1379239999999999
sg12
g13
(S'\x07\xdf\x02\x12\t3\x00\x00\x00\x00'
tRp159
sg15
F38.741968
sg16
I0
sg17
I0
sg18
I0
sba(igpxpy.gpx
GPXTrackPoint
p160
(dp161
g6
Nsg7
F160
sg8
Nsg9
I0
sg10
Nsg11
F-9.2960530000000006
sg12
g13
(S'\x07\xdf\x02\x12\x13\x17 \x00\x00\x00'
tRp162
sg15
F38.761809
sg16
I0
sg17
I0
sg18
I0
sba(igpxpy.gpx
GPXTrackPoint
p163
(dp164
g6
Nsg7
F134
sg8
Nsg9
I0
sg10
Nsg11
F-9.1379619999999999
sg12
g13
(S'\x07\xdf\x02\x14\x11 !\x00\x00\x00'
tRp165
sg15
F38.737952
sg16
I0
sg17
I0
sg18
I0
sba(igpxpy.gpx
GPXTrackPoint
p166
(dp167
g6
Nsg7
F65
sg8
Nsg9
I0
sg10
Nsg11
F-8.9656280000000006
sg12
g13
(S'\x07\xdf\x02\x17\t\x1a7\x00\x00\x00'
tRp168
sg15
F38.988596999999999
sg16
I0
sg17
I0
sg18
I0
sba(igpxpy.gpx
GPXTrackPoint
p169
(dp170
g6
Nsg7
F151
sg8
Nsg9
I0
sg10
Nsg11
F-9.1405949999999994
sg12
g13
(S'\x07\xdf\x02\x17\x13,\x05\x00\x00\x00'
tRp171
sg15
F38.736508999999998
sg16
I0
sg17
I0
sg18
I0
sba(igpxpy.gpx
GPXTrackPoint
p172
(dp173
g6
Nsg7
F199
sg8
Nsg9
I0
sg10
Nsg11
F-9.3021150000000006
sg12
g13
(S'\x07\xdf\x02\x18\x0b("\x00\x00\x00'
tRp174
sg15
F38.736530999999999
sg16
I0
sg17
I0
sg18
I0
sba(igpxpy.gpx
GPXTrackPoint
p175
(dp176
g6
Nsg7
F129
sg8
Nsg9
I0
sg10
Nsg11
F-9.1368360000000006
sg12
g13
(S'\x07\xdf\x02\x19\n\x19\x0c\x00\x00\x00'
tRp177
sg15
F38.740515000000002
sg16
I0
sg17
I0
sg18
I0
sba(igpxpy.gpx
GPXTrackPoint
p178
(dp179
g6
Nsg7
F150
sg8
Nsg9
I0
sg10
Nsg11
F-9.1405999999999992
sg12
g13
(S'\x07\xdf\x02\x19\r\x1c.\x00\x00\x00'
tRp180
sg15
F38.736424999999997
sg16
I0
sg17
I0
sg18
I0
sbasS'casa'
p181
(lp182
(igpxpy.gpx
GPXTrackPoint
p183
(dp184
g6
Nsg7
F132
sg8
Nsg9
I0
sg10
Nsg11
F-9.1507880000000004
sg12
g13
(S'\x07\xde\n\n\x02\x14-\x00\x00\x00'
tRp185
sg15
F38.717519000000003
sg16
I0
sg17
I0
sg18
I0
sba(igpxpy.gpx
GPXTrackPoint
p186
(dp187
g6
Nsg7
F207
sg8
Nsg9
I0
sg10
Nsg11
F-9.1456839999999993
sg12
g13
(S'\x07\xde\n\x0b\x02\x10!\x00\x00\x00'
tRp188
sg15
F38.736275999999997
sg16
I0
sg17
I0
sg18
I0
sba(igpxpy.gpx
GPXTrackPoint
p189
(dp190
g6
Nsg7
F151
sg8
Nsg9
I0
sg10
Nsg11
F-9.1391550000000006
sg12
g13
(S'\x07\xde\n\x0c\x02\x12\x1e\x00\x00\x00'
tRp191
sg15
F38.735408999999997
sg16
I0
sg17
I0
sg18
I0
sba(igpxpy.gpx
GPXTrackPoint
p192
(dp193
g6
Nsg7
F151
sg8
Nsg9
I0
sg10
Nsg11
F-9.1366910000000008
sg12
g13
(S'\x07\xde\n\r\x0f\x0c\x02\x00\x00\x00'
tRp194
sg15
F38.736978000000001
sg16
I0
sg17
I0
sg18
I0
sba(igpxpy.gpx
GPXTrackPoint
p195
(dp196
g6
Nsg7
F183
sg8
Nsg9
I0
sg10
Nsg11
F-9.3019789999999993
sg12
g13
(S"\x07\xde\n\x1b\x0b\x00'\x00\x00\x00"
tRp197
sg15
F38.736593999999997
sg16
I0
sg17
I0
sg18
I0
sba(igpxpy.gpx
GPXTrackPoint
p198
(dp199
g6
Nsg7
F252
sg8
Nsg9
I0
sg10
Nsg11
F-9.3020169999999993
sg12
g13
(S'\x07\xde\x0b\x03\x0b\x06\x0b\x00\x00\x00'
tRp200
sg15
F38.736753999999998
sg16
I0
sg17
I0
sg18
I0
sba(igpxpy.gpx
GPXTrackPoint
p201
(dp202
g6
Nsg7
F199
sg8
Nsg9
I0
sg10
Nsg11
F-9.3042590000000001
sg12
g13
(S'\x07\xde\x0b\x07\x11,\x06\x00\x00\x00'
tRp203
sg15
F38.744678999999998
sg16
I0
sg17
I0
sg18
I0
sba(igpxpy.gpx
GPXTrackPoint
p204
(dp205
g6
Nsg7
F160
sg8
Nsg9
I0
sg10
Nsg11
F-9.3019200000000009
sg12
g13
(S'\x07\xde\x0b\n\x0b\x07\x18\x00\x00\x00'
tRp206
sg15
F38.736705000000001
sg16
I0
sg17
I0
sg18
I0
sba(igpxpy.gpx
GPXTrackPoint
p207
(dp208
g6
Nsg7
F208
sg8
Nsg9
I0
sg10
Nsg11
F-9.3009559999999993
sg12
g13
(S'\x07\xde\x0b\x0c\x08\x0e\x0c\x00\x00\x00'
tRp209
sg15
F38.735931000000001
sg16
I0
sg17
I0
sg18
I0
sba(igpxpy.gpx
GPXTrackPoint
p210
(dp211
g6
Nsg7
F190
sg8
Nsg9
I0
sg10
Nsg11
F-9.3017149999999997
sg12
g13
(S'\x07\xde\x0b\x18\n\x06\x1a\x00\x00\x00'
tRp212
sg15
F38.736649
sg16
I0
sg17
I0
sg18
I0
sba(igpxpy.gpx
GPXTrackPoint
p213
(dp214
g6
Nsg7
F205
sg8
Nsg9
I0
sg10
Nsg11
F-9.3021650000000005
sg12
g13
(S'\x07\xde\x0c\x01\n\x0b\r\x00\x00\x00'
tRp215
sg15
F38.736395000000002
sg16
I0
sg17
I0
sg18
I0
sba(igpxpy.gpx
GPXTrackPoint
p216
(dp217
g6
Nsg7
F185
sg8
Nsg9
I0
sg10
Nsg11
F-9.2963450000000005
sg12
g13
(S'\x07\xde\x0c\x0f\n\x0c\x0c\x00\x00\x00'
tRp218
sg15
F38.727069999999998
sg16
I0
sg17
I0
sg18
I0
sba(igpxpy.gpx
GPXTrackPoint
p219
(dp220
g6
Nsg7
F122
sg8
Nsg9
I0
sg10
Nsg11
F-8.9993949999999998
sg12
g13
(S'\x07\xde\x0c\x17\x10\x12(\x00\x00\x00'
tRp221
sg15
F39.037025999999997
sg16
I0
sg17
I0
sg18
I0
sba(igpxpy.gpx
GPXTrackPoint
p222
(dp223
g6
Nsg7
F114
sg8
Nsg9
I0
sg10
Nsg11
F-8.9994990000000001
sg12
g13
(S'\x07\xde\x0c\x1d\x0e\x15\x0e\x00\x00\x00'
tRp224
sg15
F39.036959000000003
sg16
I0
sg17
I0
sg18
I0
sba(igpxpy.gpx
GPXTrackPoint
p225
(dp226
g6
Nsg7
F90
sg8
Nsg9
I0
sg10
Nsg11
F-8.9656549999999999
sg12
g13
(S'\x07\xde\x0c\x1e\x089)\x00\x00\x00'
tRp227
sg15
F38.988928999999999
sg16
I0
sg17
I0
sg18
I0
sba(igpxpy.gpx
GPXTrackPoint
p228
(dp229
g6
Nsg7
F-30
sg8
Nsg9
I0
sg10
Nsg11
F-8.9668299999999999
sg12
g13
(S'\x07\xdf\x01\x03\x13 \x1f\x00\x00\x00'
tRp230
sg15
F39.027670999999998
sg16
I0
sg17
I0
sg18
I0
sba(igpxpy.gpx
GPXTrackPoint
p231
(dp232
g6
Nsg7
F207
sg8
Nsg9
I0
sg10
Nsg11
F-9.3021080000000005
sg12
g13
(S'\x07\xdf\x01\x05\t\x01\x1a\x00\x00\x00'
tRp233
sg15
F38.736387999999998
sg16
I0
sg17
I0
sg18
I0
sba(igpxpy.gpx
GPXTrackPoint
p234
(dp235
g6
Nsg7
F66
sg8
Nsg9
I0
sg10
Nsg11
F-8.9648970000000006
sg12
g13
(S'\x07\xdf\x01\r\t\x13\x16\x00\x00\x00'
tRp236
sg15
F38.988815000000002
sg16
I0
sg17
I0
sg18
I0
sba(igpxpy.gpx
GPXTrackPoint
p237
(dp238
g6
Nsg7
F32
sg8
Nsg9
I0
sg10
Nsg11
F-8.9655509999999996
sg12
g13
(S'\x07\xdf\x01\x10\x08\x1f\x01\x00\x00\x00'
tRp239
sg15
F38.988508000000003
sg16
I0
sg17
I0
sg18
I0
sba(igpxpy.gpx
GPXTrackPoint
p240
(dp241
g6
Nsg7
F187
sg8
Nsg9
I0
sg10
Nsg11
F-8.99953
sg12
g13
(S'\x07\xdf\x01\x15\x0c\x1c\x00\x00\x00\x00'
tRp242
sg15
F39.036926000000001
sg16
I0
sg17
I0
sg18
I0
sba(igpxpy.gpx
GPXTrackPoint
p243
(dp244
g6
Nsg7
F103
sg8
Nsg9
I0
sg10
Nsg11
F-8.9992359999999998
sg12
g13
(S'\x07\xdf\x01\x16\x07*\x00\x00\x00\x00'
tRp245
sg15
F39.037146999999997
sg16
I0
sg17
I0
sg18
I0
sba(igpxpy.gpx
GPXTrackPoint
p246
(dp247
g6
Nsg7
F54
sg8
Nsg9
I0
sg10
Nsg11
F-9.1456330000000001
sg12
g13
(S'\x07\xdf\x01\x19\x11\n#\x00\x00\x00'
tRp248
sg15
F39.477237000000002
sg16
I0
sg17
I0
sg18
I0
sba(igpxpy.gpx
GPXTrackPoint
p249
(dp250
g6
Nsg7
F53
sg8
Nsg9
I0
sg10
Nsg11
F-8.9758639999999996
sg12
g13
(S'\x07\xdf\x01\x1a\x08(\x04\x00\x00\x00'
tRp251
sg15
F39.020598
sg16
I0
sg17
I0
sg18
I0
sba(igpxpy.gpx
GPXTrackPoint
p252
(dp253
g6
Nsg7
F57
sg8
Nsg9
I0
sg10
Nsg11
F-8.964893
sg12
g13
(S'\x07\xdf\x01\x1b\t46\x00\x00\x00'
tRp254
sg15
F38.988424999999999
sg16
I0
sg17
I0
sg18
I0
sba(igpxpy.gpx
GPXTrackPoint
p255
(dp256
g6
Nsg7
F57
sg8
Nsg9
I0
sg10
Nsg11
F-8.9648529999999997
sg12
g13
(S'\x07\xdf\x01\x1e\x0b\x15-\x00\x00\x00'
tRp257
sg15
F38.988376000000002
sg16
I0
sg17
I0
sg18
I0
sba(igpxpy.gpx
GPXTrackPoint
p258
(dp259
g6
Nsg7
F84
sg8
Nsg9
I0
sg10
Nsg11
F-9.0076959999999993
sg12
g13
(S'\x07\xdf\x02\x02\t\x05\x17\x00\x00\x00'
tRp260
sg15
F39.049719000000003
sg16
I0
sg17
I0
sg18
I0
sba(igpxpy.gpx
GPXTrackPoint
p261
(dp262
g6
Nsg7
F-19
sg8
Nsg9
I0
sg10
Nsg11
F-8.9654290000000003
sg12
g13
(S'\x07\xdf\x02\x03\x07\x196\x00\x00\x00'
tRp263
sg15
F38.988577999999997
sg16
I0
sg17
I0
sg18
I0
sba(igpxpy.gpx
GPXTrackPoint
p264
(dp265
g6
Nsg7
F114
sg8
Nsg9
I0
sg10
Nsg11
F-8.9993920000000003
sg12
g13
(S'\x07\xdf\x02\t\t\x08"\x00\x00\x00'
tRp266
sg15
F39.037047999999999
sg16
I0
sg17
I0
sg18
I0
sba(igpxpy.gpx
GPXTrackPoint
p267
(dp268
g6
Nsg7
F81
sg8
Nsg9
I0
sg10
Nsg11
F-8.9811219999999992
sg12
g13
(S"\x07\xdf\x02\n\n'\x00\x00\x00\x00"
tRp269
sg15
F39.029141000000003
sg16
I0
sg17
I0
sg18
I0
sba(igpxpy.gpx
GPXTrackPoint
p270
(dp271
g6
Nsg7
F59
sg8
Nsg9
I0
sg10
Nsg11
F-8.9656269999999996
sg12
g13
(S'\x07\xdf\x02\x12\t\x04 \x00\x00\x00'
tRp272
sg15
F38.988495
sg16
I0
sg17
I0
sg18
I0
sba(igpxpy.gpx
GPXTrackPoint
p273
(dp274
g6
Nsg7
F38
sg8
Nsg9
I0
sg10
Nsg11
F-8.9657400000000003
sg12
g13
(S'\x07\xdf\x02\x13\x0849\x00\x00\x00'
tRp275
sg15
F38.988391
sg16
I0
sg17
I0
sg18
I0
sba(igpxpy.gpx
GPXTrackPoint
p276
(dp277
g6
Nsg7
F58
sg8
Nsg9
I0
sg10
Nsg11
F-8.9656000000000002
sg12
g13
(S'\x07\xdf\x02\x14\t6\x14\x00\x00\x00'
tRp278
sg15
F38.988723999999998
sg16
I0
sg17
I0
sg18
I0
sba(igpxpy.gpx
GPXTrackPoint
p279
(dp280
g6
Nsg7
F104
sg8
Nsg9
I0
sg10
Nsg11
F-8.9980829999999994
sg12
g13
(S'\x07\xdf\x02\x17\t\x0e;\x00\x00\x00'
tRp281
sg15
F39.037087
sg16
I0
sg17
I0
sg18
I0
sba(igpxpy.gpx
GPXTrackPoint
p282
(dp283
g6
Nsg7
F46
sg8
Nsg9
I0
sg10
Nsg11
F-8.9899900000000006
sg12
g13
(S'\x07\xdf\x02\x18\t&!\x00\x00\x00'
tRp284
sg15
F38.950769999999999
sg16
I0
sg17
I0
sg18
I0
sba(igpxpy.gpx
GPXTrackPoint
p285
(dp286
g6
Nsg7
F58
sg8
Nsg9
I0
sg10
Nsg11
F-8.9655930000000001
sg12
g13
(S'\x07\xdf\x02\x19\t#\x1e\x00\x00\x00'
tRp287
sg15
F38.988557
sg16
I0
sg17
I0
sg18
I0
sbasS'*'
(lp288
(igpxpy.gpx
GPXTrackPoint
p289
(dp290
g6
Nsg7
F120
sg8
Nsg9
I0
sg10
Nsg11
F-8.9994200000000006
sg12
g13
(S'\x07\xdf\x01\x1a\x14\x0c(\x00\x00\x00'
tRp291
sg15
F39.037072000000002
sg16
I0
sg17
I0
sg18
I0
sba(igpxpy.gpx
GPXTrackPoint
p292
(dp293
g6
Nsg7
F128
sg8
Nsg9
I0
sg10
Nsg11
F-8.9993759999999998
sg12
g13
(S'\x07\xdf\x02\x17\x15\n:\x00\x00\x00'
tRp294
sg15
F39.036873999999997
sg16
I0
sg17
I0
sg18
I0
sbasS'ist-taguspark'
p295
(lp296
(igpxpy.gpx
GPXTrackPoint
p297
(dp298
g6
Nsg7
F139
sg8
Nsg9
I0
sg10
Nsg11
F-9.2858509999999992
sg12
g13
(S'\x07\xde\n\t\x15$\x05\x00\x00\x00'
tRp299
sg15
F38.713397000000001
sg16
I0
sg17
I0
sg18
I0
sba(igpxpy.gpx
GPXTrackPoint
p300
(dp301
g6
Nsg7
F141
sg8
Nsg9
I0
sg10
Nsg11
F-9.2858440000000009
sg12
g13
(S"\x07\xde\n\t\x15' \x00\x00\x00"
tRp302
sg15
F38.713371000000002
sg16
I0
sg17
I0
sg18
I0
sba(igpxpy.gpx
GPXTrackPoint
p303
(dp304
g6
Nsg7
F138
sg8
Nsg9
I0
sg10
Nsg11
F-9.138954
sg12
g13
(S'\x07\xde\n\n\x125\x15\x00\x00\x00'
tRp305
sg15
F38.738109000000001
sg16
I0
sg17
I0
sg18
I0
sba(igpxpy.gpx
GPXTrackPoint
p306
(dp307
g6
Nsg7
F144
sg8
Nsg9
I0
sg10
Nsg11
F-9.1371780000000005
sg12
g13
(S'\x07\xde\n\x0b\x11,\x07\x00\x00\x00'
tRp308
sg15
F38.737786999999997
sg16
I0
sg17
I0
sg18
I0
sba(igpxpy.gpx
GPXTrackPoint
p309
(dp310
g6
Nsg7
F153
sg8
Nsg9
I0
sg10
Nsg11
F-9.1451480000000007
sg12
g13
(S'\x07\xde\n\x14\x0e\x00\x07\x00\x00\x00'
tRp311
sg15
F38.73554
sg16
I0
sg17
I0
sg18
I0
sba(igpxpy.gpx
GPXTrackPoint
p312
(dp313
g6
Nsg7
F157
sg8
Nsg9
I0
sg10
Nsg11
F-9.1452690000000008
sg12
g13
(S'\x07\xde\n\x14\x0e\x02(\x00\x00\x00'
tRp314
sg15
F38.735450999999998
sg16
I0
sg17
I0
sg18
I0
sba(igpxpy.gpx
GPXTrackPoint
p315
(dp316
g6
Nsg7
F193
sg8
Nsg9
I0
sg10
Nsg11
F-9.3019970000000001
sg12
g13
(S'\x07\xde\n\x1b\x0f$\t\x00\x00\x00'
tRp317
sg15
F38.736432000000001
sg16
I0
sg17
I0
sg18
I0
sba(igpxpy.gpx
GPXTrackPoint
p318
(dp319
g6
Nsg7
F206
sg8
Nsg9
I0
sg10
Nsg11
F-9.3018409999999996
sg12
g13
(S"\x07\xde\x0b\x03\x10'\x08\x00\x00\x00"
tRp320
sg15
F38.736767999999998
sg16
I0
sg17
I0
sg18
I0
sba(igpxpy.gpx
GPXTrackPoint
p321
(dp322
g6
Nsg7
F53
sg8
Nsg9
I0
sg10
Nsg11
F-8.9667180000000002
sg12
g13
(S'\x07\xde\x0b\x07\x1270\x00\x00\x00'
tRp323
sg15
F39.025463000000002
sg16
I0
sg17
I0
sg18
I0
sba(igpxpy.gpx
GPXTrackPoint
p324
(dp325
g6
Nsg7
F56
sg8
Nsg9
I0
sg10
Nsg11
F-8.9669439999999998
sg12
g13
(S'\x07\xde\x0b\x07\x129;\x00\x00\x00'
tRp326
sg15
F39.025466999999999
sg16
I0
sg17
I0
sg18
I0
sba(igpxpy.gpx
GPXTrackPoint
p327
(dp328
g6
Nsg7
F201
sg8
Nsg9
I0
sg10
Nsg11
F-9.3021150000000006
sg12
g13
(S'\x07\xde\x0c\x01\x0c9\x0f\x00\x00\x00'
tRp329
sg15
F38.736649999999997
sg16
I0
sg17
I0
sg18
I0
sba(igpxpy.gpx
GPXTrackPoint
p330
(dp331
g6
Nsg7
F193
sg8
Nsg9
I0
sg10
Nsg11
F-9.3027219999999993
sg12
g13
(S'\x07\xde\x0c\x0f\x10(,\x00\x00\x00'
tRp332
sg15
F38.736691999999998
sg16
I0
sg17
I0
sg18
I0
sba(igpxpy.gpx
GPXTrackPoint
p333
(dp334
g6
Nsg7
F133
sg8
Nsg9
I0
sg10
Nsg11
F-9.1424780000000005
sg12
g13
(S'\x07\xde\x0c\x0f\x0c\x0b\x19\x00\x00\x00'
tRp335
sg15
F38.734971999999999
sg16
I0
sg17
I0
sg18
I0
sba(igpxpy.gpx
GPXTrackPoint
p336
(dp337
g6
Nsg7
F57
sg8
Nsg9
I0
sg10
Nsg11
F-8.952007
sg12
g13
(S'\x07\xde\x0c\x17\x11\x0c0\x00\x00\x00'
tRp338
sg15
F39.065736999999999
sg16
I0
sg17
I0
sg18
I0
sba(igpxpy.gpx
GPXTrackPoint
p339
(dp340
g6
Nsg7
F47
sg8
Nsg9
I0
sg10
Nsg11
F-8.9810300000000005
sg12
g13
(S'\x07\xde\x0c\x1d\x0e\x1a\x1c\x00\x00\x00'
tRp341
sg15
F39.029063000000001
sg16
I0
sg17
I0
sg18
I0
sba(igpxpy.gpx
GPXTrackPoint
p342
(dp343
g6
Nsg7
F124
sg8
Nsg9
I0
sg10
Nsg11
F-9.1538640000000004
sg12
g13
(S'\x07\xde\x0c\x1d\x10\x04\x03\x00\x00\x00'
tRp344
sg15
F38.740240999999997
sg16
I0
sg17
I0
sg18
I0
sba(igpxpy.gpx
GPXTrackPoint
p345
(dp346
g6
Nsg7
F162
sg8
Nsg9
I0
sg10
Nsg11
F-9.1377799999999993
sg12
g13
(S"\x07\xde\x0c\x1e\t/'\x00\x00\x00"
tRp347
sg15
F38.741933000000003
sg16
I0
sg17
I0
sg18
I0
sba(igpxpy.gpx
GPXTrackPoint
p348
(dp349
g6
Nsg7
F134
sg8
Nsg9
I0
sg10
Nsg11
F-9.1439109999999992
sg12
g13
(S'\x07\xdf\x01\x05\n\x03\x1d\x00\x00\x00'
tRp350
sg15
F38.735252000000003
sg16
I0
sg17
I0
sg18
I0
sba(igpxpy.gpx
GPXTrackPoint
p351
(dp352
g6
Nsg7
F75
sg8
Nsg9
I0
sg10
Nsg11
F-9.0985209999999999
sg12
g13
(S'\x07\xdf\x01\r\t9\x1f\x00\x00\x00'
tRp353
sg15
F38.767662999999999
sg16
I0
sg17
I0
sg18
I0
sba(igpxpy.gpx
GPXTrackPoint
p354
(dp355
g6
Nsg7
F44
sg8
Nsg9
I0
sg10
Nsg11
F-8.9648990000000008
sg12
g13
(S'\x07\xdf\x01\r\r\x1f\x12\x00\x00\x00'
tRp356
sg15
F38.989089999999997
sg16
I0
sg17
I0
sg18
I0
sba(igpxpy.gpx
GPXTrackPoint
p357
(dp358
g6
Nsg7
F124
sg8
Nsg9
I0
sg10
Nsg11
F-9.1424540000000007
sg12
g13
(S'\x07\xdf\x01\x10\x0c91\x00\x00\x00'
tRp359
sg15
F38.735117000000002
sg16
I0
sg17
I0
sg18
I0
sba(igpxpy.gpx
GPXTrackPoint
p360
(dp361
g6
Nsg7
F133
sg8
Nsg9
I0
sg10
Nsg11
F-9.1422939999999997
sg12
g13
(S'\x07\xdf\x01\x10\r\x004\x00\x00\x00'
tRp362
sg15
F38.735264999999998
sg16
I0
sg17
I0
sg18
I0
sba(igpxpy.gpx
GPXTrackPoint
p363
(dp364
g6
Nsg7
F139
sg8
Nsg9
I0
sg10
Nsg11
F-9.1367399999999996
sg12
g13
(S'\x07\xdf\x01\x15\r5\x1a\x00\x00\x00'
tRp365
sg15
F38.737105
sg16
I0
sg17
I0
sg18
I0
sba(igpxpy.gpx
GPXTrackPoint
p366
(dp367
g6
Nsg7
F133
sg8
Nsg9
I0
sg10
Nsg11
F-9.1978120000000008
sg12
g13
(S'\x07\xdf\x01\x15\x0e\x11\x00\x00\x00\x00'
tRp368
sg15
F38.743296999999998
sg16
I0
sg17
I0
sg18
I0
sba(igpxpy.gpx
GPXTrackPoint
p369
(dp370
g6
Nsg7
F156
sg8
Nsg9
I0
sg10
Nsg11
F-9.1382169999999991
sg12
g13
(S'\x07\xdf\x01\x16\t\x14&\x00\x00\x00'
tRp371
sg15
F38.742018000000002
sg16
I0
sg17
I0
sg18
I0
sba(igpxpy.gpx
GPXTrackPoint
p372
(dp373
g6
Nsg7
F110
sg8
Nsg9
I0
sg10
Nsg11
F-9.2804500000000001
sg12
g13
(S'\x07\xdf\x01\x16\n\x1a%\x00\x00\x00'
tRp374
sg15
F38.715060000000001
sg16
I0
sg17
I0
sg18
I0
sba(igpxpy.gpx
GPXTrackPoint
p375
(dp376
g6
Nsg7
F80
sg8
Nsg9
I0
sg10
Nsg11
F-9.1489600000000006
sg12
g13
(S'\x07\xdf\x01\x19\x11*\x0f\x00\x00\x00'
tRp377
sg15
F39.403860999999999
sg16
I0
sg17
I0
sg18
I0
sba(igpxpy.gpx
GPXTrackPoint
p378
(dp379
g6
Nsg7
F163
sg8
Nsg9
I0
sg10
Nsg11
F-9.0250430000000001
sg12
g13
(S'\x07\xdf\x01\x19\x12\x13%\x00\x00\x00'
tRp380
sg15
F39.256532999999997
sg16
I0
sg17
I0
sg18
I0
sba(igpxpy.gpx
GPXTrackPoint
p381
(dp382
g6
Nsg7
F134
sg8
Nsg9
I0
sg10
Nsg11
F-9.1388940000000005
sg12
g13
(S"\x07\xdf\x01\x1a\x12'\x0f\x00\x00\x00"
tRp383
sg15
F38.741470999999997
sg16
I0
sg17
I0
sg18
I0
sba(igpxpy.gpx
GPXTrackPoint
p384
(dp385
g6
Nsg7
F153
sg8
Nsg9
I0
sg10
Nsg11
F-9.1381370000000004
sg12
g13
(S'\x07\xdf\x01\x1a\x12;\x17\x00\x00\x00'
tRp386
sg15
F38.741925000000002
sg16
I0
sg17
I0
sg18
I0
sba(igpxpy.gpx
GPXTrackPoint
p387
(dp388
g6
Nsg7
F104
sg8
Nsg9
I0
sg10
Nsg11
F-9.0942030000000003
sg12
g13
(S'\x07\xdf\x01\x1e\x13\t\x1a\x00\x00\x00'
tRp389
sg15
F38.807434999999998
sg16
I0
sg17
I0
sg18
I0
sba(igpxpy.gpx
GPXTrackPoint
p390
(dp391
g6
Nsg7
F80
sg8
Nsg9
I0
sg10
Nsg11
F-9.0941399999999994
sg12
g13
(S'\x07\xdf\x01\x1e\x13\r\x08\x00\x00\x00'
tRp392
sg15
F38.807341000000001
sg16
I0
sg17
I0
sg18
I0
sba(igpxpy.gpx
GPXTrackPoint
p393
(dp394
g6
Nsg7
F122
sg8
Nsg9
I0
sg10
Nsg11
F-9.1485579999999995
sg12
g13
(S'\x07\xdf\x02\x03\x12\x00+\x00\x00\x00'
tRp395
sg15
F38.744413000000002
sg16
I0
sg17
I0
sg18
I0
sba(igpxpy.gpx
GPXTrackPoint
p396
(dp397
g6
Nsg7
F118
sg8
Nsg9
I0
sg10
Nsg11
F-9.1487029999999994
sg12
g13
(S'\x07\xdf\x02\x03\x12\x11\x18\x00\x00\x00'
tRp398
sg15
F38.744537999999999
sg16
I0
sg17
I0
sg18
I0
sba(igpxpy.gpx
GPXTrackPoint
p399
(dp400
g6
Nsg7
F167
sg8
Nsg9
I0
sg10
Nsg11
F-9.1378109999999992
sg12
g13
(S'\x07\xdf\x02\t\x11\x11\x14\x00\x00\x00'
tRp401
sg15
F38.742060000000002
sg16
I0
sg17
I0
sg18
I0
sba(igpxpy.gpx
GPXTrackPoint
p402
(dp403
g6
Nsg7
F55
sg8
Nsg9
I0
sg10
Nsg11
F-9.0989419999999992
sg12
g13
(S'\x07\xdf\x02\n\x0b6\t\x00\x00\x00'
tRp404
sg15
F38.767271000000001
sg16
I0
sg17
I0
sg18
I0
sba(igpxpy.gpx
GPXTrackPoint
p405
(dp406
g6
Nsg7
F94
sg8
Nsg9
I0
sg10
Nsg11
F-9.1341439999999992
sg12
g13
(S'\x07\xdf\x02\n\x0c\x07\r\x00\x00\x00'
tRp407
sg15
F38.745696000000002
sg16
I0
sg17
I0
sg18
I0
sba(igpxpy.gpx
GPXTrackPoint
p408
(dp409
g6
Nsg7
F99
sg8
Nsg9
I0
sg10
Nsg11
F-9.1663150000000009
sg12
g13
(S'\x07\xdf\x02\x12\x13(8\x00\x00\x00'
tRp410
sg15
F38.740270000000002
sg16
I0
sg17
I0
sg18
I0
sba(igpxpy.gpx
GPXTrackPoint
p411
(dp412
g6
Nsg7
F112
sg8
Nsg9
I0
sg10
Nsg11
F-9.1661470000000005
sg12
g13
(S'\x07\xdf\x02\x12\x13-\x1a\x00\x00\x00'
tRp413
sg15
F38.740371000000003
sg16
I0
sg17
I0
sg18
I0
sba(igpxpy.gpx
GPXTrackPoint
p414
(dp415
g6
Nsg7
F156
sg8
Nsg9
I0
sg10
Nsg11
F-9.1406150000000004
sg12
g13
(S'\x07\xdf\x02\x13\r\x1b(\x00\x00\x00'
tRp416
sg15
F38.736510000000003
sg16
I0
sg17
I0
sg18
I0
sba(igpxpy.gpx
GPXTrackPoint
p417
(dp418
g6
Nsg7
F121
sg8
Nsg9
I0
sg10
Nsg11
F-9.1378760000000003
sg12
g13
(S'\x07\xdf\x02\x17\x134\x08\x00\x00\x00'
tRp419
sg15
F38.741168000000002
sg16
I0
sg17
I0
sg18
I0
sba(igpxpy.gpx
GPXTrackPoint
p420
(dp421
g6
Nsg7
F178
sg8
Nsg9
I0
sg10
Nsg11
F-9.1378389999999996
sg12
g13
(S'\x07\xdf\x02\x17\x136,\x00\x00\x00'
tRp422
sg15
F38.741804999999999
sg16
I0
sg17
I0
sg18
I0
sba(igpxpy.gpx
GPXTrackPoint
p423
(dp424
g6
Nsg7
F148
sg8
Nsg9
I0
sg10
Nsg11
F-9.1381739999999994
sg12
g13
(S'\x07\xdf\x02\x18\n\x122\x00\x00\x00'
tRp425
sg15
F38.742201000000001
sg16
I0
sg17
I0
sg18
I0
sba(igpxpy.gpx
GPXTrackPoint
p426
(dp427
g6
Nsg7
F146
sg8
Nsg9
I0
sg10
Nsg11
F-9.1378029999999999
sg12
g13
(S'\x07\xdf\x02\x18\n(\x14\x00\x00\x00'
tRp428
sg15
F38.741273
sg16
I0
sg17
I0
sg18
I0
sba(igpxpy.gpx
GPXTrackPoint
p429
(dp430
g6
Nsg7
F149
sg8
Nsg9
I0
sg10
Nsg11
F-9.137143
sg12
g13
(S'\x07\xdf\x02\x19\r#:\x00\x00\x00'
tRp431
sg15
F38.736604
sg16
I0
sg17
I0
sg18
I0
sba(igpxpy.gpx
GPXTrackPoint
p432
(dp433
g6
Nsg7
F146
sg8
Nsg9
I0
sg10
Nsg11
F-9.1370079999999998
sg12
g13
(S'\x07\xdf\x02\x19\r&\x06\x00\x00\x00'
tRp434
sg15
F38.736556999999998
sg16
I0
sg17
I0
sg18
I0
sbasS'praia'
p435
(lp436
(igpxpy.gpx
GPXTrackPoint
p437
(dp438
g6
Nsg7
F232
sg8
Nsg9
I0
sg10
Nsg11
F-9.3068059999999999
sg12
g13
(S'\x07\xde\n\x0e\x12.\x1d\x00\x00\x00'
tRp439
sg15
F38.754297999999999
sg16
I0
sg17
I0
sg18
I0
sba(igpxpy.gpx
GPXTrackPoint
p440
(dp441
g6
Nsg7
F189
sg8
Nsg9
I0
sg10
Nsg11
F-9.30213
sg12
g13
(S'\x07\xde\n\x14\t\x009\x00\x00\x00'
tRp442
sg15
F38.736547999999999
sg16
I0
sg17
I0
sg18
I0
sba(igpxpy.gpx
GPXTrackPoint
p443
(dp444
g6
Nsg7
F127
sg8
Nsg9
I0
sg10
Nsg11
F-9.1367080000000005
sg12
g13
(S'\x07\xde\x0b\x03\x0b$!\x00\x00\x00'
tRp445
sg15
F38.737045999999999
sg16
I0
sg17
I0
sg18
I0
sba(igpxpy.gpx
GPXTrackPoint
p446
(dp447
g6
Nsg7
F145
sg8
Nsg9
I0
sg10
Nsg11
F-9.1366510000000005
sg12
g13
(S'\x07\xde\x0b\x03\x10\t\x18\x00\x00\x00'
tRp448
sg15
F38.736966000000002
sg16
I0
sg17
I0
sg18
I0
sba(igpxpy.gpx
GPXTrackPoint
p449
(dp450
g6
Nsg7
F116
sg8
Nsg9
I0
sg10
Nsg11
F-8.9994540000000001
sg12
g13
(S'\x07\xdf\x01\x03\x13/\x04\x00\x00\x00'
tRp451
sg15
F39.037047000000001
sg16
I0
sg17
I0
sg18
I0
sba(igpxpy.gpx
GPXTrackPoint
p452
(dp453
g6
Nsg7
F53
sg8
Nsg9
I0
sg10
Nsg11
F-8.9654959999999999
sg12
g13
(S'\x07\xdf\x02\x02\x13\x04\x11\x00\x00\x00'
tRp454
sg15
F38.989033999999997
sg16
I0
sg17
I0
sg18
I0
sba(igpxpy.gpx
GPXTrackPoint
p455
(dp456
g6
Nsg7
F61
sg8
Nsg9
I0
sg10
Nsg11
F-8.9655520000000006
sg12
g13
(S'\x07\xdf\x02\x02\x13\x06\x16\x00\x00\x00'
tRp457
sg15
F38.988948000000001
sg16
I0
sg17
I0
sg18
I0
sba(igpxpy.gpx
GPXTrackPoint
p458
(dp459
g6
Nsg7
F153
sg8
Nsg9
I0
sg10
Nsg11
F-9.1380090000000003
sg12
g13
(S'\x07\xdf\x02\x13\t6\x08\x00\x00\x00'
tRp460
sg15
F38.741833999999997
sg16
I0
sg17
I0
sg18
I0
sba(igpxpy.gpx
GPXTrackPoint
p461
(dp462
g6
Nsg7
F144
sg8
Nsg9
I0
sg10
Nsg11
F-9.1370389999999997
sg12
g13
(S'\x07\xdf\x02\x13\r\x0e9\x00\x00\x00'
tRp463
sg15
F38.736814000000003
sg16
I0
sg17
I0
sg18
I0
sbasS'futebol'
p464
(lp465
(igpxpy.gpx
GPXTrackPoint
p466
(dp467
g6
Nsg7
F105
sg8
Nsg9
I0
sg10
Nsg11
F-9.3083740000000006
sg12
g13
(S'\x07\xde\n\t\x0c\r\x10\x00\x00\x00'
tRp468
sg15
F38.693663999999998
sg16
I0
sg17
I0
sg18
I0
sba(igpxpy.gpx
GPXTrackPoint
p469
(dp470
g6
Nsg7
F204
sg8
Nsg9
I0
sg10
Nsg11
F-9.3015989999999995
sg12
g13
(S'\x07\xde\n\x0b\x02 \x03\x00\x00\x00'
tRp471
sg15
F38.738841999999998
sg16
I0
sg17
I0
sg18
I0
sba(igpxpy.gpx
GPXTrackPoint
p472
(dp473
g6
Nsg7
F196
sg8
Nsg9
I0
sg10
Nsg11
F-9.2975630000000002
sg12
g13
(S'\x07\xde\n\x0b\x11\x173\x00\x00\x00'
tRp474
sg15
F38.732705000000003
sg16
I0
sg17
I0
sg18
I0
sba(igpxpy.gpx
GPXTrackPoint
p475
(dp476
g6
Nsg7
F211
sg8
Nsg9
I0
sg10
Nsg11
F-9.30227
sg12
g13
(S'\x07\xde\x0b\x0c\r.\x1d\x00\x00\x00'
tRp477
sg15
F38.738007000000003
sg16
I0
sg17
I0
sg18
I0
sba(igpxpy.gpx
GPXTrackPoint
p478
(dp479
g6
Nsg7
F144
sg8
Nsg9
I0
sg10
Nsg11
F-9.138007
sg12
g13
(S'\x07\xdf\x02\x03\x08\x11\x1b\x00\x00\x00'
tRp480
sg15
F38.742055000000001
sg16
I0
sg17
I0
sg18
I0
sba(igpxpy.gpx
GPXTrackPoint
p481
(dp482
g6
Nsg7
F165
sg8
Nsg9
I0
sg10
Nsg11
F-9.1435820000000003
sg12
g13
(S"\x07\xdf\x02\x03\x11#'\x00\x00\x00"
tRp483
sg15
F38.735320999999999
sg16
I0
sg17
I0
sg18
I0
sba(igpxpy.gpx
GPXTrackPoint
p484
(dp485
g6
Nsg7
F71
sg8
Nsg9
I0
sg10
Nsg11
F-9.0988319999999998
sg12
g13
(S'\x07\xdf\x02\x14\n\x1d0\x00\x00\x00'
tRp486
sg15
F38.767668
sg16
I0
sg17
I0
sg18
I0
sba(igpxpy.gpx
GPXTrackPoint
p487
(dp488
g6
Nsg7
F153
sg8
Nsg9
I0
sg10
Nsg11
F-9.139939
sg12
g13
(S'\x07\xdf\x02\x14\x11\x1c;\x00\x00\x00'
tRp489
sg15
F38.736776999999996
sg16
I0
sg17
I0
sg18
I0
sba(igpxpy.gpx
GPXTrackPoint
p490
(dp491
g6
Nsg7
F147
sg8
Nsg9
I0
sg10
Nsg11
F-9.1374739999999992
sg12
g13
(S'\x07\xdf\x02\x18\n/7\x00\x00\x00'
tRp492
sg15
F38.737253000000003
sg16
I0
sg17
I0
sg18
I0
sba(igpxpy.gpx
GPXTrackPoint
p493
(dp494
g6
Nsg7
F147
sg8
Nsg9
I0
sg10
Nsg11
F-9.1372719999999994
sg12
g13
(S'\x07\xdf\x02\x18\x0b\x01\x1e\x00\x00\x00'
tRp495
sg15
F38.737222000000003
sg16
I0
sg17
I0
sg18
I0
sbasS'mcdonalds'
p496
(lp497
(igpxpy.gpx
GPXTrackPoint
p498
(dp499
g6
Nsg7
F123
sg8
Nsg9
I0
sg10
Nsg11
F-9.1494060000000008
sg12
g13
(S'\x07\xde\n\t\x155,\x00\x00\x00'
tRp500
sg15
F38.716358999999997
sg16
I0
sg17
I0
sg18
I0
sba(igpxpy.gpx
GPXTrackPoint
p501
(dp502
g6
Nsg7
F146
sg8
Nsg9
I0
sg10
Nsg11
F-9.1395700000000009
sg12
g13
(S'\x07\xde\n\x14\x0e\r\x04\x00\x00\x00'
tRp503
sg15
F38.735747000000003
sg16
I0
sg17
I0
sg18
I0
sba(igpxpy.gpx
GPXTrackPoint
p504
(dp505
g6
Nsg7
F128
sg8
Nsg9
I0
sg10
Nsg11
F-9.1519519999999996
sg12
g13
(S'\x07\xde\x0c\x0f\x0c\x1f6\x00\x00\x00'
tRp506
sg15
F38.742381000000002
sg16
I0
sg17
I0
sg18
I0
sba(igpxpy.gpx
GPXTrackPoint
p507
(dp508
g6
Nsg7
F146
sg8
Nsg9
I0
sg10
Nsg11
F-9.1377830000000007
sg12
g13
(S'\x07\xdf\x01\x10\r\t2\x00\x00\x00'
tRp509
sg15
F38.737288999999997
sg16
I0
sg17
I0
sg18
I0
sba(igpxpy.gpx
GPXTrackPoint
p510
(dp511
g6
Nsg7
F203
sg8
Nsg9
I0
sg10
Nsg11
F-9.3028019999999998
sg12
g13
(S'\x07\xdf\x01\x15\x0e\x1e\x03\x00\x00\x00'
tRp512
sg15
F38.736939999999997
sg16
I0
sg17
I0
sg18
I0
sba(igpxpy.gpx
GPXTrackPoint
p513
(dp514
g6
Nsg7
F211
sg8
Nsg9
I0
sg10
Nsg11
F-9.3022449999999992
sg12
g13
(S'\x07\xdf\x01\x16\n \x16\x00\x00\x00'
tRp515
sg15
F38.736646999999998
sg16
I0
sg17
I0
sg18
I0
sba(igpxpy.gpx
GPXTrackPoint
p516
(dp517
g6
Nsg7
F111
sg8
Nsg9
I0
sg10
Nsg11
F-8.9992629999999991
sg12
g13
(S'\x07\xdf\x01\x19\x12/\x16\x00\x00\x00'
tRp518
sg15
F39.037078999999999
sg16
I0
sg17
I0
sg18
I0
sba(igpxpy.gpx
GPXTrackPoint
p519
(dp520
g6
Nsg7
F124
sg8
Nsg9
I0
sg10
Nsg11
F-9.1358630000000005
sg12
g13
(S'\x07\xdf\x01\x1a\x13\x08\x17\x00\x00\x00'
tRp521
sg15
F38.745766000000003
sg16
I0
sg17
I0
sg18
I0
sba(igpxpy.gpx
GPXTrackPoint
p522
(dp523
g6
Nsg7
F90
sg8
Nsg9
I0
sg10
Nsg11
F-9.122541
sg12
g13
(S'\x07\xdf\x01\x1a\x13\x17\x19\x00\x00\x00'
tRp524
sg15
F38.742373999999998
sg16
I0
sg17
I0
sg18
I0
sba(igpxpy.gpx
GPXTrackPoint
p525
(dp526
g6
Nsg7
F114
sg8
Nsg9
I0
sg10
Nsg11
F-8.9994219999999991
sg12
g13
(S'\x07\xdf\x01\x1e\x130.\x00\x00\x00'
tRp527
sg15
F39.037109000000001
sg16
I0
sg17
I0
sg18
I0
sba(igpxpy.gpx
GPXTrackPoint
p528
(dp529
g6
Nsg7
F118
sg8
Nsg9
I0
sg10
Nsg11
F-8.9994390000000006
sg12
g13
(S'\x07\xdf\x02\x02\x13\x1c\x1a\x00\x00\x00'
tRp530
sg15
F39.037044999999999
sg16
I0
sg17
I0
sg18
I0
sba(igpxpy.gpx
GPXTrackPoint
p531
(dp532
g6
Nsg7
F119
sg8
Nsg9
I0
sg10
Nsg11
F-8.9991339999999997
sg12
g13
(S'\x07\xdf\x02\x03\x13\x14(\x00\x00\x00'
tRp533
sg15
F39.037250999999998
sg16
I0
sg17
I0
sg18
I0
sba(igpxpy.gpx
GPXTrackPoint
p534
(dp535
g6
Nsg7
F125
sg8
Nsg9
I0
sg10
Nsg11
F-9.1372239999999998
sg12
g13
(S'\x07\xdf\x02\n\x0c\x16\t\x00\x00\x00'
tRp536
sg15
F38.736474999999999
sg16
I0
sg17
I0
sg18
I0
sba(igpxpy.gpx
GPXTrackPoint
p537
(dp538
g6
Nsg7
F117
sg8
Nsg9
I0
sg10
Nsg11
F-8.9994399999999999
sg12
g13
(S'\x07\xdf\x02\x12\x14+\x1d\x00\x00\x00'
tRp539
sg15
F39.036957999999998
sg16
I0
sg17
I0
sg18
I0
sba(igpxpy.gpx
GPXTrackPoint
p540
(dp541
g6
Nsg7
F143
sg8
Nsg9
I0
sg10
Nsg11
F-9.1355590000000007
sg12
g13
(S'\x07\xdf\x02\x17\x14\x02\x0e\x00\x00\x00'
tRp542
sg15
F38.745736999999998
sg16
I0
sg17
I0
sg18
I0
sba(igpxpy.gpx
GPXTrackPoint
p543
(dp544
g6
Nsg7
F99
sg8
Nsg9
I0
sg10
Nsg11
F-9.1197549999999996
sg12
g13
(S'\x07\xdf\x02\x17\x14\x16\x0f\x00\x00\x00'
tRp545
sg15
F38.739781999999998
sg16
I0
sg17
I0
sg18
I0
sba(igpxpy.gpx
GPXTrackPoint
p546
(dp547
g6
Nsg7
F153
sg8
Nsg9
I0
sg10
Nsg11
F-9.138064
sg12
g13
(S'\x07\xdf\x02\x19\r:\x01\x00\x00\x00'
tRp548
sg15
F38.738000999999997
sg16
I0
sg17
I0
sg18
I0
sbas.